target datalayout = "e-m:e-p270:32:32-p271:32:32-p272:64:64-i64:64-i128:128-f80:128-n8:16:32:64-S128"
target triple = "x86_64-pc-linux-gnu"

%struct.check_data = type { ptr, ptr }

@.str = private unnamed_addr constant [41 x i8] c"../openssl/test/evp_pkey_provided_test.c\00", align 1
@.str.34 = private unnamed_addr constant [27 x i8] c"bld = OSSL_PARAM_BLD_new()\00", align 1
@.str.35 = private unnamed_addr constant [44 x i8] c"n = BN_bin2bn(n_data, sizeof(n_data), NULL)\00", align 1
@.str.36 = private unnamed_addr constant [44 x i8] c"e = BN_bin2bn(e_data, sizeof(e_data), NULL)\00", align 1
@.str.37 = private unnamed_addr constant [44 x i8] c"d = BN_bin2bn(d_data, sizeof(d_data), NULL)\00", align 1
@.str.38 = private unnamed_addr constant [54 x i8] c"OSSL_PARAM_BLD_push_BN(bld, OSSL_PKEY_PARAM_RSA_N, n)\00", align 1
@.str.39 = private unnamed_addr constant [2 x i8] c"n\00", align 1
@.str.40 = private unnamed_addr constant [54 x i8] c"OSSL_PARAM_BLD_push_BN(bld, OSSL_PKEY_PARAM_RSA_E, e)\00", align 1
@.str.41 = private unnamed_addr constant [2 x i8] c"e\00", align 1
@.str.42 = private unnamed_addr constant [54 x i8] c"OSSL_PARAM_BLD_push_BN(bld, OSSL_PKEY_PARAM_RSA_D, d)\00", align 1
@.str.43 = private unnamed_addr constant [2 x i8] c"d\00", align 1
@.str.44 = private unnamed_addr constant [47 x i8] c"fromdata_params = OSSL_PARAM_BLD_to_param(bld)\00", align 1
@.str.53 = private unnamed_addr constant [12 x i8] c"rsa-factor1\00", align 1
@.str.54 = private unnamed_addr constant [12 x i8] c"rsa-factor2\00", align 1
@.str.55 = private unnamed_addr constant [14 x i8] c"rsa-exponent1\00", align 1
@.str.56 = private unnamed_addr constant [14 x i8] c"rsa-exponent2\00", align 1
@.str.57 = private unnamed_addr constant [17 x i8] c"rsa-coefficient1\00", align 1
@test_fromdata_rsa_derive_from_pq_sp800.n_data = internal global [65 x i8] c"\00\C7\06\D8k<O\B7\95BD\90\BD\EF\F3\C4\B5\A8U\9E3\A3\04:\90\E5\13\FF\87i\15\A4\8A\17\10\CC\DF\F9\C5\0F\F1\12\FF\12\11\E5k\\\83\D9C\D1\8A~\A6`\07.\BB\03\17-\EC\17\87", align 16
@test_fromdata_rsa_derive_from_pq_sp800.e_data = internal global [3 x i8] c"\01\00\01", align 1
@test_fromdata_rsa_derive_from_pq_sp800.d_data = internal global [64 x i8] c"\1E^]\07\7F\DCj\16\CCU\CA\001l\F0\C7\078\89;7\D4\9D[\1E\99>\94Z\E4\82\86\8Ax4\097\D5\E7\B4\EF_\83\94\FF\E56y\10\0C8\C5:3\A6|<\CC\98\E0\F5\DB\E6\81", align 16
@test_fromdata_rsa_derive_from_pq_sp800.p_data = internal global [33 x i8] c"\00\F6a8\0E\1F\82|\B8\BA\00\D3\AC\DCNk~\F7X\F3\D9\D8!\EDT\A36\D2,_\06}\C5", align 16
@test_fromdata_rsa_derive_from_pq_sp800.q_data = internal global [33 x i8] c"\00\CE\CCJ\A5O\D6s\D0 \C3\98d \9B\C1#\D8\\\82O\E8\A52\CD~\97\B4\DE\F6L\80\DB", align 16
@test_fromdata_rsa_derive_from_pq_sp800.dmp1_data = internal global [33 x i8] c"\00\D1\07\B6y4\FE\8E6c\88\A4\0E:sE\FCXz]\98\EB(\0D\A5\0B<M\A0[\96\B4I", align 16
@test_fromdata_rsa_derive_from_pq_sp800.dmq1_data = internal global [32 x i8] c"[G\02\DF\AA\B8\AE\8F\BC\16yj \96\7F\0E\92Nj\DAX\86\AA@\D7\D2\A0l\15l\B9'", align 16
@test_fromdata_rsa_derive_from_pq_sp800.iqmp_data = internal global [33 x i8] c"\00\A0\D6\F0\E8\17\9E\E7\E6\99\12\D6\D9C\CF\ED7)\F5l>\C1\7F.1?d4fh\\\22\08", align 16
@.str.136 = private unnamed_addr constant [44 x i8] c"p = BN_bin2bn(p_data, sizeof(p_data), NULL)\00", align 1
@.str.137 = private unnamed_addr constant [44 x i8] c"q = BN_bin2bn(q_data, sizeof(q_data), NULL)\00", align 1
@.str.138 = private unnamed_addr constant [53 x i8] c"dmp1 = BN_bin2bn(dmp1_data, sizeof(dmp1_data), NULL)\00", align 1
@.str.139 = private unnamed_addr constant [53 x i8] c"dmq1 = BN_bin2bn(dmq1_data, sizeof(dmq1_data), NULL)\00", align 1
@.str.140 = private unnamed_addr constant [53 x i8] c"iqmp = BN_bin2bn(iqmp_data, sizeof(iqmp_data), NULL)\00", align 1
@.str.141 = private unnamed_addr constant [60 x i8] c"OSSL_PARAM_BLD_push_BN(bld, OSSL_PKEY_PARAM_RSA_FACTOR1, p)\00", align 1
@.str.142 = private unnamed_addr constant [60 x i8] c"OSSL_PARAM_BLD_push_BN(bld, OSSL_PKEY_PARAM_RSA_FACTOR2, q)\00", align 1
@.str.143 = private unnamed_addr constant [68 x i8] c"OSSL_PARAM_BLD_push_int(bld, OSSL_PKEY_PARAM_RSA_DERIVE_FROM_PQ, 1)\00", align 1
@.str.144 = private unnamed_addr constant [19 x i8] c"rsa-derive-from-pq\00", align 1

; Function Attrs: nounwind uwtable
define internal i32 @test_fromdata_rsa_derive_from_pq_sp800() #0 {
  %1 = alloca ptr, align 8
  %2 = alloca ptr, align 8
  %3 = alloca ptr, align 8
  %4 = alloca ptr, align 8
  %5 = alloca ptr, align 8
  %6 = alloca ptr, align 8
  %7 = alloca ptr, align 8
  %8 = alloca ptr, align 8
  %9 = alloca ptr, align 8
  %10 = alloca ptr, align 8
  %11 = alloca [4 x %struct.check_data], align 16
  %12 = alloca i32, align 4
  call void @llvm.lifetime.start.p0(i64 8, ptr %1) #6
  store ptr null, ptr %1, align 8, !tbaa !19
  call void @llvm.lifetime.start.p0(i64 8, ptr %2) #6
  store ptr null, ptr %2, align 8, !tbaa !21
  call void @llvm.lifetime.start.p0(i64 8, ptr %3) #6
  store ptr null, ptr %3, align 8, !tbaa !21
  call void @llvm.lifetime.start.p0(i64 8, ptr %4) #6
  store ptr null, ptr %4, align 8, !tbaa !21
  call void @llvm.lifetime.start.p0(i64 8, ptr %5) #6
  store ptr null, ptr %5, align 8, !tbaa !21
  call void @llvm.lifetime.start.p0(i64 8, ptr %6) #6
  store ptr null, ptr %6, align 8, !tbaa !21
  call void @llvm.lifetime.start.p0(i64 8, ptr %7) #6
  store ptr null, ptr %7, align 8, !tbaa !21
  call void @llvm.lifetime.start.p0(i64 8, ptr %8) #6
  store ptr null, ptr %8, align 8, !tbaa !21
  call void @llvm.lifetime.start.p0(i64 8, ptr %9) #6
  store ptr null, ptr %9, align 8, !tbaa !21
  call void @llvm.lifetime.start.p0(i64 8, ptr %10) #6
  store ptr null, ptr %10, align 8, !tbaa !15
  call void @llvm.lifetime.start.p0(i64 64, ptr %11) #6
  call void @llvm.lifetime.start.p0(i64 4, ptr %12) #6
  store i32 0, ptr %12, align 4, !tbaa !9
  %13 = call ptr @OSSL_PARAM_BLD_new()
  store ptr %13, ptr %1, align 8, !tbaa !19
  %14 = call i32 @test_ptr(ptr noundef @.str, i32 noundef 593, ptr noundef @.str.34, ptr noundef %13)
  %15 = icmp ne i32 %14, 0
  br i1 %15, label %16, label %100

16:                                               ; preds = %0
  %17 = call ptr @BN_bin2bn(ptr noundef @test_fromdata_rsa_derive_from_pq_sp800.n_data, i32 noundef 65, ptr noundef null)
  store ptr %17, ptr %2, align 8, !tbaa !21
  %18 = call i32 @test_ptr(ptr noundef @.str, i32 noundef 594, ptr noundef @.str.35, ptr noundef %17)
  %19 = icmp ne i32 %18, 0
  br i1 %19, label %20, label %100

20:                                               ; preds = %16
  %21 = call ptr @BN_bin2bn(ptr noundef @test_fromdata_rsa_derive_from_pq_sp800.e_data, i32 noundef 3, ptr noundef null)
  store ptr %21, ptr %3, align 8, !tbaa !21
  %22 = call i32 @test_ptr(ptr noundef @.str, i32 noundef 595, ptr noundef @.str.36, ptr noundef %21)
  %23 = icmp ne i32 %22, 0
  br i1 %23, label %24, label %100

24:                                               ; preds = %20
  %25 = call ptr @BN_bin2bn(ptr noundef @test_fromdata_rsa_derive_from_pq_sp800.d_data, i32 noundef 64, ptr noundef null)
  store ptr %25, ptr %4, align 8, !tbaa !21
  %26 = call i32 @test_ptr(ptr noundef @.str, i32 noundef 596, ptr noundef @.str.37, ptr noundef %25)
  %27 = icmp ne i32 %26, 0
  br i1 %27, label %28, label %100

28:                                               ; preds = %24
  %29 = call ptr @BN_bin2bn(ptr noundef @test_fromdata_rsa_derive_from_pq_sp800.p_data, i32 noundef 33, ptr noundef null)
  store ptr %29, ptr %5, align 8, !tbaa !21
  %30 = call i32 @test_ptr(ptr noundef @.str, i32 noundef 597, ptr noundef @.str.136, ptr noundef %29)
  %31 = icmp ne i32 %30, 0
  br i1 %31, label %32, label %100

32:                                               ; preds = %28
  %33 = call ptr @BN_bin2bn(ptr noundef @test_fromdata_rsa_derive_from_pq_sp800.q_data, i32 noundef 33, ptr noundef null)
  store ptr %33, ptr %6, align 8, !tbaa !21
  %34 = call i32 @test_ptr(ptr noundef @.str, i32 noundef 598, ptr noundef @.str.137, ptr noundef %33)
  %35 = icmp ne i32 %34, 0
  br i1 %35, label %36, label %100

36:                                               ; preds = %32
  %37 = call ptr @BN_bin2bn(ptr noundef @test_fromdata_rsa_derive_from_pq_sp800.dmp1_data, i32 noundef 33, ptr noundef null)
  store ptr %37, ptr %7, align 8, !tbaa !21
  %38 = call i32 @test_ptr(ptr noundef @.str, i32 noundef 599, ptr noundef @.str.138, ptr noundef %37)
  %39 = icmp ne i32 %38, 0
  br i1 %39, label %40, label %100

40:                                               ; preds = %36
  %41 = call ptr @BN_bin2bn(ptr noundef @test_fromdata_rsa_derive_from_pq_sp800.dmq1_data, i32 noundef 32, ptr noundef null)
  store ptr %41, ptr %8, align 8, !tbaa !21
  %42 = call i32 @test_ptr(ptr noundef @.str, i32 noundef 600, ptr noundef @.str.139, ptr noundef %41)
  %43 = icmp ne i32 %42, 0
  br i1 %43, label %44, label %100

44:                                               ; preds = %40
  %45 = call ptr @BN_bin2bn(ptr noundef @test_fromdata_rsa_derive_from_pq_sp800.iqmp_data, i32 noundef 33, ptr noundef null)
  store ptr %45, ptr %9, align 8, !tbaa !21
  %46 = call i32 @test_ptr(ptr noundef @.str, i32 noundef 601, ptr noundef @.str.140, ptr noundef %45)
  %47 = icmp ne i32 %46, 0
  br i1 %47, label %48, label %100

48:                                               ; preds = %44
  %49 = load ptr, ptr %1, align 8, !tbaa !19
  %50 = load ptr, ptr %2, align 8, !tbaa !21
  %51 = call i32 @OSSL_PARAM_BLD_push_BN(ptr noundef %49, ptr noundef @.str.39, ptr noundef %50)
  %52 = icmp ne i32 %51, 0
  %53 = zext i1 %52 to i32
  %54 = call i32 @test_true(ptr noundef @.str, i32 noundef 602, ptr noundef @.str.38, i32 noundef %53)
  %55 = icmp ne i32 %54, 0
  br i1 %55, label %56, label %100

56:                                               ; preds = %48
  %57 = load ptr, ptr %1, align 8, !tbaa !19
  %58 = load ptr, ptr %3, align 8, !tbaa !21
  %59 = call i32 @OSSL_PARAM_BLD_push_BN(ptr noundef %57, ptr noundef @.str.41, ptr noundef %58)
  %60 = icmp ne i32 %59, 0
  %61 = zext i1 %60 to i32
  %62 = call i32 @test_true(ptr noundef @.str, i32 noundef 603, ptr noundef @.str.40, i32 noundef %61)
  %63 = icmp ne i32 %62, 0
  br i1 %63, label %64, label %100

64:                                               ; preds = %56
  %65 = load ptr, ptr %1, align 8, !tbaa !19
  %66 = load ptr, ptr %4, align 8, !tbaa !21
  %67 = call i32 @OSSL_PARAM_BLD_push_BN(ptr noundef %65, ptr noundef @.str.43, ptr noundef %66)
  %68 = icmp ne i32 %67, 0
  %69 = zext i1 %68 to i32
  %70 = call i32 @test_true(ptr noundef @.str, i32 noundef 604, ptr noundef @.str.42, i32 noundef %69)
  %71 = icmp ne i32 %70, 0
  br i1 %71, label %72, label %100

72:                                               ; preds = %64
  %73 = load ptr, ptr %1, align 8, !tbaa !19
  %74 = load ptr, ptr %5, align 8, !tbaa !21
  %75 = call i32 @OSSL_PARAM_BLD_push_BN(ptr noundef %73, ptr noundef @.str.53, ptr noundef %74)
  %76 = icmp ne i32 %75, 0
  %77 = zext i1 %76 to i32
  %78 = call i32 @test_true(ptr noundef @.str, i32 noundef 606, ptr noundef @.str.141, i32 noundef %77)
  %79 = icmp ne i32 %78, 0
  br i1 %79, label %80, label %100

80:                                               ; preds = %72
  %81 = load ptr, ptr %1, align 8, !tbaa !19
  %82 = load ptr, ptr %6, align 8, !tbaa !21
  %83 = call i32 @OSSL_PARAM_BLD_push_BN(ptr noundef %81, ptr noundef @.str.54, ptr noundef %82)
  %84 = icmp ne i32 %83, 0
  %85 = zext i1 %84 to i32
  %86 = call i32 @test_true(ptr noundef @.str, i32 noundef 608, ptr noundef @.str.142, i32 noundef %85)
  %87 = icmp ne i32 %86, 0
  br i1 %87, label %88, label %100

88:                                               ; preds = %80
  %89 = load ptr, ptr %1, align 8, !tbaa !19
  %90 = call i32 @OSSL_PARAM_BLD_push_int(ptr noundef %89, ptr noundef @.str.144, i32 noundef 1)
  %91 = icmp ne i32 %90, 0
  %92 = zext i1 %91 to i32
  %93 = call i32 @test_true(ptr noundef @.str, i32 noundef 610, ptr noundef @.str.143, i32 noundef %92)
  %94 = icmp ne i32 %93, 0
  br i1 %94, label %95, label %100

95:                                               ; preds = %88
  %96 = load ptr, ptr %1, align 8, !tbaa !19
  %97 = call ptr @OSSL_PARAM_BLD_to_param(ptr noundef %96)
  store ptr %97, ptr %10, align 8, !tbaa !15
  %98 = call i32 @test_ptr(ptr noundef @.str, i32 noundef 611, ptr noundef @.str.44, ptr noundef %97)
  %99 = icmp ne i32 %98, 0
  br i1 %99, label %101, label %100

100:                                              ; preds = %95, %88, %80, %72, %64, %56, %48, %44, %40, %36, %32, %28, %24, %20, %16, %0
  br label %124

101:                                              ; preds = %95
  %102 = getelementptr inbounds [4 x %struct.check_data], ptr %11, i64 0, i64 0
  %103 = getelementptr inbounds nuw %struct.check_data, ptr %102, i32 0, i32 0
  store ptr @.str.55, ptr %103, align 16, !tbaa !27
  %104 = load ptr, ptr %7, align 8, !tbaa !21
  %105 = getelementptr inbounds [4 x %struct.check_data], ptr %11, i64 0, i64 0
  %106 = getelementptr inbounds nuw %struct.check_data, ptr %105, i32 0, i32 1
  store ptr %104, ptr %106, align 8, !tbaa !29
  %107 = getelementptr inbounds [4 x %struct.check_data], ptr %11, i64 0, i64 1
  %108 = getelementptr inbounds nuw %struct.check_data, ptr %107, i32 0, i32 0
  store ptr @.str.56, ptr %108, align 16, !tbaa !27
  %109 = load ptr, ptr %8, align 8, !tbaa !21
  %110 = getelementptr inbounds [4 x %struct.check_data], ptr %11, i64 0, i64 1
  %111 = getelementptr inbounds nuw %struct.check_data, ptr %110, i32 0, i32 1
  store ptr %109, ptr %111, align 8, !tbaa !29
  %112 = getelementptr inbounds [4 x %struct.check_data], ptr %11, i64 0, i64 2
  %113 = getelementptr inbounds nuw %struct.check_data, ptr %112, i32 0, i32 0
  store ptr @.str.57, ptr %113, align 16, !tbaa !27
  %114 = load ptr, ptr %9, align 8, !tbaa !21
  %115 = getelementptr inbounds [4 x %struct.check_data], ptr %11, i64 0, i64 2
  %116 = getelementptr inbounds nuw %struct.check_data, ptr %115, i32 0, i32 1
  store ptr %114, ptr %116, align 8, !tbaa !29
  %117 = getelementptr inbounds [4 x %struct.check_data], ptr %11, i64 0, i64 3
  %118 = getelementptr inbounds nuw %struct.check_data, ptr %117, i32 0, i32 0
  store ptr null, ptr %118, align 16, !tbaa !27
  %119 = getelementptr inbounds [4 x %struct.check_data], ptr %11, i64 0, i64 3
  %120 = getelementptr inbounds nuw %struct.check_data, ptr %119, i32 0, i32 1
  store ptr null, ptr %120, align 8, !tbaa !29
  %121 = load ptr, ptr %10, align 8, !tbaa !15
  %122 = getelementptr inbounds [4 x %struct.check_data], ptr %11, i64 0, i64 0
  %123 = call i32 @do_fromdata_rsa_derive(ptr noundef %121, ptr noundef %122, i32 noundef 512, i32 noundef 56, i32 noundef 64)
  store i32 %123, ptr %12, align 4, !tbaa !9
  br label %124

124:                                              ; preds = %101, %100
  %125 = load ptr, ptr %2, align 8, !tbaa !21
  call void @BN_free(ptr noundef %125)
  %126 = load ptr, ptr %3, align 8, !tbaa !21
  call void @BN_free(ptr noundef %126)
  %127 = load ptr, ptr %4, align 8, !tbaa !21
  call void @BN_free(ptr noundef %127)
  %128 = load ptr, ptr %5, align 8, !tbaa !21
  call void @BN_free(ptr noundef %128)
  %129 = load ptr, ptr %6, align 8, !tbaa !21
  call void @BN_free(ptr noundef %129)
  %130 = load ptr, ptr %7, align 8, !tbaa !21
  call void @BN_free(ptr noundef %130)
  %131 = load ptr, ptr %8, align 8, !tbaa !21
  call void @BN_free(ptr noundef %131)
  %132 = load ptr, ptr %9, align 8, !tbaa !21
  call void @BN_free(ptr noundef %132)
  %133 = load ptr, ptr %1, align 8, !tbaa !19
  call void @OSSL_PARAM_BLD_free(ptr noundef %133)
  %134 = load i32, ptr %12, align 4, !tbaa !9
  call void @llvm.lifetime.end.p0(i64 4, ptr %12) #6
  call void @llvm.lifetime.end.p0(i64 64, ptr %11) #6
  call void @llvm.lifetime.end.p0(i64 8, ptr %10) #6
  call void @llvm.lifetime.end.p0(i64 8, ptr %9) #6
  call void @llvm.lifetime.end.p0(i64 8, ptr %8) #6
  call void @llvm.lifetime.end.p0(i64 8, ptr %7) #6
  call void @llvm.lifetime.end.p0(i64 8, ptr %6) #6
  call void @llvm.lifetime.end.p0(i64 8, ptr %5) #6
  call void @llvm.lifetime.end.p0(i64 8, ptr %4) #6
  call void @llvm.lifetime.end.p0(i64 8, ptr %3) #6
  call void @llvm.lifetime.end.p0(i64 8, ptr %2) #6
  call void @llvm.lifetime.end.p0(i64 8, ptr %1) #6
  ret i32 %134
}