; Function Attrs: nounwind uwtable
define internal range(i32 0, 2) i32 @test_fromdata_rsa_derive_from_pq_sp800() #0 {
  %1 = alloca [4 x %struct.check_data], align 16
  call void @llvm.lifetime.start.p0(i64 64, ptr nonnull %1) #6
  %2 = tail call ptr @OSSL_PARAM_BLD_new() #6
  %3 = tail call i32 @test_ptr(ptr noundef nonnull @.str, i32 noundef 593, ptr noundef nonnull @.str.34, ptr noundef %2) #6
  %.not = icmp eq i32 %3, 0
  br i1 %.not, label %69, label %4

4:                                                ; preds = %0
  %5 = tail call ptr @BN_bin2bn(ptr noundef nonnull @test_fromdata_rsa_derive_from_pq_sp800.n_data, i32 noundef 65, ptr noundef null) #6
  %6 = tail call i32 @test_ptr(ptr noundef nonnull @.str, i32 noundef 594, ptr noundef nonnull @.str.35, ptr noundef %5) #6
  %.not33 = icmp eq i32 %6, 0
  br i1 %.not33, label %69, label %7

7:                                                ; preds = %4
  %8 = tail call ptr @BN_bin2bn(ptr noundef nonnull @test_fromdata_rsa_derive_from_pq_sp800.e_data, i32 noundef 3, ptr noundef null) #6
  %9 = tail call i32 @test_ptr(ptr noundef nonnull @.str, i32 noundef 595, ptr noundef nonnull @.str.36, ptr noundef %8) #6
  %.not34 = icmp eq i32 %9, 0
  br i1 %.not34, label %69, label %10

10:                                               ; preds = %7
  %11 = tail call ptr @BN_bin2bn(ptr noundef nonnull @test_fromdata_rsa_derive_from_pq_sp800.d_data, i32 noundef 64, ptr noundef null) #6
  %12 = tail call i32 @test_ptr(ptr noundef nonnull @.str, i32 noundef 596, ptr noundef nonnull @.str.37, ptr noundef %11) #6
  %.not35 = icmp eq i32 %12, 0
  br i1 %.not35, label %69, label %13

13:                                               ; preds = %10
  %14 = tail call ptr @BN_bin2bn(ptr noundef nonnull @test_fromdata_rsa_derive_from_pq_sp800.p_data, i32 noundef 33, ptr noundef null) #6
  %15 = tail call i32 @test_ptr(ptr noundef nonnull @.str, i32 noundef 597, ptr noundef nonnull @.str.136, ptr noundef %14) #6
  %.not36 = icmp eq i32 %15, 0
  br i1 %.not36, label %69, label %16

16:                                               ; preds = %13
  %17 = tail call ptr @BN_bin2bn(ptr noundef nonnull @test_fromdata_rsa_derive_from_pq_sp800.q_data, i32 noundef 33, ptr noundef null) #6
  %18 = tail call i32 @test_ptr(ptr noundef nonnull @.str, i32 noundef 598, ptr noundef nonnull @.str.137, ptr noundef %17) #6
  %.not37 = icmp eq i32 %18, 0
  br i1 %.not37, label %69, label %19

19:                                               ; preds = %16
  %20 = tail call ptr @BN_bin2bn(ptr noundef nonnull @test_fromdata_rsa_derive_from_pq_sp800.dmp1_data, i32 noundef 33, ptr noundef null) #6
  %21 = tail call i32 @test_ptr(ptr noundef nonnull @.str, i32 noundef 599, ptr noundef nonnull @.str.138, ptr noundef %20) #6
  %.not38 = icmp eq i32 %21, 0
  br i1 %.not38, label %69, label %22

22:                                               ; preds = %19
  %23 = tail call ptr @BN_bin2bn(ptr noundef nonnull @test_fromdata_rsa_derive_from_pq_sp800.dmq1_data, i32 noundef 32, ptr noundef null) #6
  %24 = tail call i32 @test_ptr(ptr noundef nonnull @.str, i32 noundef 600, ptr noundef nonnull @.str.139, ptr noundef %23) #6
  %.not39 = icmp eq i32 %24, 0
  br i1 %.not39, label %69, label %25

25:                                               ; preds = %22
  %26 = tail call ptr @BN_bin2bn(ptr noundef nonnull @test_fromdata_rsa_derive_from_pq_sp800.iqmp_data, i32 noundef 33, ptr noundef null) #6
  %27 = tail call i32 @test_ptr(ptr noundef nonnull @.str, i32 noundef 601, ptr noundef nonnull @.str.140, ptr noundef %26) #6
  %.not40 = icmp eq i32 %27, 0
  br i1 %.not40, label %69, label %28

28:                                               ; preds = %25
  %29 = tail call i32 @OSSL_PARAM_BLD_push_BN(ptr noundef %2, ptr noundef nonnull @.str.39, ptr noundef %5) #6
  %30 = icmp ne i32 %29, 0
  %31 = zext i1 %30 to i32
  %32 = tail call i32 @test_true(ptr noundef nonnull @.str, i32 noundef 602, ptr noundef nonnull @.str.38, i32 noundef %31) #6
  %.not41 = icmp eq i32 %32, 0
  br i1 %.not41, label %69, label %33

33:                                               ; preds = %28
  %34 = tail call i32 @OSSL_PARAM_BLD_push_BN(ptr noundef %2, ptr noundef nonnull @.str.41, ptr noundef %8) #6
  %35 = icmp ne i32 %34, 0
  %36 = zext i1 %35 to i32
  %37 = tail call i32 @test_true(ptr noundef nonnull @.str, i32 noundef 603, ptr noundef nonnull @.str.40, i32 noundef %36) #6
  %.not42 = icmp eq i32 %37, 0
  br i1 %.not42, label %69, label %38

38:                                               ; preds = %33
  %39 = tail call i32 @OSSL_PARAM_BLD_push_BN(ptr noundef %2, ptr noundef nonnull @.str.43, ptr noundef %11) #6
  %40 = icmp ne i32 %39, 0
  %41 = zext i1 %40 to i32
  %42 = tail call i32 @test_true(ptr noundef nonnull @.str, i32 noundef 604, ptr noundef nonnull @.str.42, i32 noundef %41) #6
  %.not43 = icmp eq i32 %42, 0
  br i1 %.not43, label %69, label %43

43:                                               ; preds = %38
  %44 = tail call i32 @OSSL_PARAM_BLD_push_BN(ptr noundef %2, ptr noundef nonnull @.str.53, ptr noundef %14) #6
  %45 = icmp ne i32 %44, 0
  %46 = zext i1 %45 to i32
  %47 = tail call i32 @test_true(ptr noundef nonnull @.str, i32 noundef 606, ptr noundef nonnull @.str.141, i32 noundef %46) #6
  %.not44 = icmp eq i32 %47, 0
  br i1 %.not44, label %69, label %48

48:                                               ; preds = %43
  %49 = tail call i32 @OSSL_PARAM_BLD_push_BN(ptr noundef %2, ptr noundef nonnull @.str.54, ptr noundef %17) #6
  %50 = icmp ne i32 %49, 0
  %51 = zext i1 %50 to i32
  %52 = tail call i32 @test_true(ptr noundef nonnull @.str, i32 noundef 608, ptr noundef nonnull @.str.142, i32 noundef %51) #6
  %.not45 = icmp eq i32 %52, 0
  br i1 %.not45, label %69, label %53

53:                                               ; preds = %48
  %54 = tail call i32 @OSSL_PARAM_BLD_push_int(ptr noundef %2, ptr noundef nonnull @.str.144, i32 noundef 1) #6
  %55 = icmp ne i32 %54, 0
  %56 = zext i1 %55 to i32
  %57 = tail call i32 @test_true(ptr noundef nonnull @.str, i32 noundef 610, ptr noundef nonnull @.str.143, i32 noundef %56) #6
  %.not46 = icmp eq i32 %57, 0
  br i1 %.not46, label %69, label %58

58:                                               ; preds = %53
  %59 = tail call ptr @OSSL_PARAM_BLD_to_param(ptr noundef %2) #6
  %60 = tail call i32 @test_ptr(ptr noundef nonnull @.str, i32 noundef 611, ptr noundef nonnull @.str.44, ptr noundef %59) #6
  %.not47 = icmp eq i32 %60, 0
  br i1 %.not47, label %69, label %61

61:                                               ; preds = %58
  store ptr @.str.55, ptr %1, align 16, !tbaa !24
  %62 = getelementptr inbounds nuw i8, ptr %1, i64 8
  store ptr %20, ptr %62, align 8, !tbaa !26
  %63 = getelementptr inbounds nuw i8, ptr %1, i64 16
  store ptr @.str.56, ptr %63, align 16, !tbaa !24
  %64 = getelementptr inbounds nuw i8, ptr %1, i64 24
  store ptr %23, ptr %64, align 8, !tbaa !26
  %65 = getelementptr inbounds nuw i8, ptr %1, i64 32
  store ptr @.str.57, ptr %65, align 16, !tbaa !24
  %66 = getelementptr inbounds nuw i8, ptr %1, i64 40
  store ptr %26, ptr %66, align 8, !tbaa !26
  %67 = getelementptr inbounds nuw i8, ptr %1, i64 48
  call void @llvm.memset.p0.i64(ptr noundef nonnull align 16 dereferenceable(16) %67, i8 0, i64 16, i1 false)
  %68 = call fastcc i32 @do_fromdata_rsa_derive(ptr noundef %59, ptr noundef %1, i32 noundef 512, i32 noundef 56, i32 noundef 64)
  br label %69

69:                                               ; preds = %0, %4, %7, %10, %13, %16, %19, %22, %25, %28, %33, %38, %43, %48, %53, %58, %61
  %.032 = phi ptr [ %5, %61 ], [ %5, %58 ], [ %5, %53 ], [ %5, %48 ], [ %5, %43 ], [ %5, %38 ], [ %5, %33 ], [ %5, %28 ], [ %5, %25 ], [ %5, %22 ], [ %5, %19 ], [ %5, %16 ], [ %5, %13 ], [ %5, %10 ], [ %5, %7 ], [ %5, %4 ], [ null, %0 ]
  %.031 = phi ptr [ %8, %61 ], [ %8, %58 ], [ %8, %53 ], [ %8, %48 ], [ %8, %43 ], [ %8, %38 ], [ %8, %33 ], [ %8, %28 ], [ %8, %25 ], [ %8, %22 ], [ %8, %19 ], [ %8, %16 ], [ %8, %13 ], [ %8, %10 ], [ %8, %7 ], [ null, %4 ], [ null, %0 ]
  %.030 = phi ptr [ %11, %61 ], [ %11, %58 ], [ %11, %53 ], [ %11, %48 ], [ %11, %43 ], [ %11, %38 ], [ %11, %33 ], [ %11, %28 ], [ %11, %25 ], [ %11, %22 ], [ %11, %19 ], [ %11, %16 ], [ %11, %13 ], [ %11, %10 ], [ null, %7 ], [ null, %4 ], [ null, %0 ]
  %.029 = phi ptr [ %14, %61 ], [ %14, %58 ], [ %14, %53 ], [ %14, %48 ], [ %14, %43 ], [ %14, %38 ], [ %14, %33 ], [ %14, %28 ], [ %14, %25 ], [ %14, %22 ], [ %14, %19 ], [ %14, %16 ], [ %14, %13 ], [ null, %10 ], [ null, %7 ], [ null, %4 ], [ null, %0 ]
  %.028 = phi ptr [ %17, %61 ], [ %17, %58 ], [ %17, %53 ], [ %17, %48 ], [ %17, %43 ], [ %17, %38 ], [ %17, %33 ], [ %17, %28 ], [ %17, %25 ], [ %17, %22 ], [ %17, %19 ], [ %17, %16 ], [ null, %13 ], [ null, %10 ], [ null, %7 ], [ null, %4 ], [ null, %0 ]
  %.027 = phi ptr [ %20, %61 ], [ %20, %58 ], [ %20, %53 ], [ %20, %48 ], [ %20, %43 ], [ %20, %38 ], [ %20, %33 ], [ %20, %28 ], [ %20, %25 ], [ %20, %22 ], [ %20, %19 ], [ null, %16 ], [ null, %13 ], [ null, %10 ], [ null, %7 ], [ null, %4 ], [ null, %0 ]
  %.026 = phi ptr [ %23, %61 ], [ %23, %58 ], [ %23, %53 ], [ %23, %48 ], [ %23, %43 ], [ %23, %38 ], [ %23, %33 ], [ %23, %28 ], [ %23, %25 ], [ %23, %22 ], [ null, %19 ], [ null, %16 ], [ null, %13 ], [ null, %10 ], [ null, %7 ], [ null, %4 ], [ null, %0 ]
  %.025 = phi ptr [ %26, %61 ], [ %26, %58 ], [ %26, %53 ], [ %26, %48 ], [ %26, %43 ], [ %26, %38 ], [ %26, %33 ], [ %26, %28 ], [ %26, %25 ], [ null, %22 ], [ null, %19 ], [ null, %16 ], [ null, %13 ], [ null, %10 ], [ null, %7 ], [ null, %4 ], [ null, %0 ]
  %.0 = phi i32 [ %68, %61 ], [ 0, %58 ], [ 0, %53 ], [ 0, %48 ], [ 0, %43 ], [ 0, %38 ], [ 0, %33 ], [ 0, %28 ], [ 0, %25 ], [ 0, %22 ], [ 0, %19 ], [ 0, %16 ], [ 0, %13 ], [ 0, %10 ], [ 0, %7 ], [ 0, %4 ], [ 0, %0 ]
  tail call void @BN_free(ptr noundef %.032) #6
  tail call void @BN_free(ptr noundef %.031) #6
  tail call void @BN_free(ptr noundef %.030) #6
  tail call void @BN_free(ptr noundef %.029) #6
  tail call void @BN_free(ptr noundef %.028) #6
  tail call void @BN_free(ptr noundef %.027) #6
  tail call void @BN_free(ptr noundef %.026) #6
  tail call void @BN_free(ptr noundef %.025) #6
  tail call void @OSSL_PARAM_BLD_free(ptr noundef %2) #6
  call void @llvm.lifetime.end.p0(i64 64, ptr nonnull %1) #6
  ret i32 %.0
}